target datalayout = "e-m:e-p270:32:32-p271:32:32-p272:64:64-i64:64-i128:128-f80:128-n8:16:32:64-S128"
target triple = "x86_64-pc-linux-gnu"

%struct.PlatformTarget = type { ptr, i32, ptr, ptr, i32, i32, i32, i32, i32, i32, i32, [7 x %struct.AlignData], [7 x %struct.AlignData], [7 x %struct.AlignData], i32, i16, %union.anon.88, i8, i8, i8, i8, i8, i8, i8, i8, i8, i8, %struct.AlignData, i32, i32, i32, i32, i32, i32, i32, i32, i32, i32, i32, i32, i32, i32, i32, i32, ptr }
%union.anon.88 = type { %struct.anon.90 }
%struct.anon.90 = type { %struct.X86Features, i32, i32 }
%struct.X86Features = type { [2 x i64], ptr }
%struct.AlignData = type { i32, i32 }
%struct.Type_ = type { i32, ptr, ptr, ptr, %union.anon.85, ptr, ptr, %union.anon.87 }
%union.anon.85 = type { ptr }
%union.anon.87 = type { %struct.TypeFunction }
%struct.TypeFunction = type { ptr, ptr, ptr }

@platform_target = external global %struct.PlatformTarget, align 8
@.str.4 = private unnamed_addr constant [36 x i8] c"FATAL ERROR %s -> in %s @ in %s:%d \00", align 1
@.str.5 = private unnamed_addr constant [22 x i8] c"Should be unreachable\00", align 1
@.str.6 = private unnamed_addr constant [116 x i8] c"generated/home/dtcxzyw/WorkSpace/Projects/compilers/llvm-opt-benchmark/bench/c3c/c3c/src/compiler/codegen_general.c\00", align 1
@__func__.type_homogenous_aggregate_small_enough = private unnamed_addr constant [39 x i8] c"type_homogenous_aggregate_small_enough\00", align 1

; Function Attrs: nounwind uwtable
define dso_local zeroext i1 @type_homogenous_aggregate_small_enough(ptr noundef %0, i32 noundef %1) #0 {
  %3 = alloca i1, align 1
  %4 = alloca ptr, align 8
  %5 = alloca i32, align 4
  store ptr %0, ptr %4, align 8
  store i32 %1, ptr %5, align 4
  %6 = load i32, ptr getelementptr inbounds (%struct.PlatformTarget, ptr @platform_target, i32 0, i32 10), align 8
  switch i32 %6, label %38 [
    i32 8, label %7
    i32 1, label %34
    i32 2, label %34
    i32 3, label %34
    i32 4, label %34
    i32 6, label %34
    i32 0, label %37
    i32 5, label %37
    i32 7, label %37
    i32 9, label %37
  ]

7:                                                ; preds = %2
  %8 = load ptr, ptr %4, align 8
  %9 = getelementptr inbounds %struct.Type_, ptr %8, i32 0, i32 0
  %10 = load i32, ptr %9, align 8
  %11 = icmp eq i32 %10, 17
  br i1 %11, label %12, label %18

12:                                               ; preds = %7
  %13 = load i8, ptr getelementptr inbounds (%struct.PlatformTarget, ptr @platform_target, i32 0, i32 20), align 1
  %14 = trunc i8 %13 to i1
  br i1 %14, label %15, label %18

15:                                               ; preds = %12
  %16 = load i32, ptr %5, align 4
  %17 = icmp ule i32 %16, 8
  store i1 %17, ptr %3, align 1
  br label %40

18:                                               ; preds = %12, %7
  %19 = load ptr, ptr %4, align 8
  %20 = getelementptr inbounds %struct.Type_, ptr %19, i32 0, i32 0
  %21 = load i32, ptr %20, align 8
  %22 = icmp eq i32 %21, 37
  br i1 %22, label %23, label %26

23:                                               ; preds = %18
  %24 = load i32, ptr %5, align 4
  %25 = icmp ule i32 %24, 8
  store i1 %25, ptr %3, align 1
  br label %40

26:                                               ; preds = %18
  %27 = load ptr, ptr %4, align 8
  %28 = call i32 @type_size(ptr noundef %27)
  %29 = add i32 %28, 7
  %30 = udiv i32 %29, 8
  %31 = load i32, ptr %5, align 4
  %32 = mul i32 %30, %31
  %33 = icmp ule i32 %32, 8
  store i1 %33, ptr %3, align 1
  br label %40

34:                                               ; preds = %2, %2, %2, %2, %2
  %35 = load i32, ptr %5, align 4
  %36 = icmp ule i32 %35, 4
  store i1 %36, ptr %3, align 1
  br label %40

37:                                               ; preds = %2, %2, %2, %2
  store i1 false, ptr %3, align 1
  br label %40

38:                                               ; preds = %2
  br label %39

39:                                               ; preds = %38
  call void (ptr, ...) @error_exit(ptr noundef @.str.4, ptr noundef @.str.5, ptr noundef @__func__.type_homogenous_aggregate_small_enough, ptr noundef @.str.6, i32 noundef 156) #3
  unreachable

40:                                               ; preds = %37, %34, %26, %23, %15
  %41 = load i1, ptr %3, align 1
  ret i1 %41
}