; Function Attrs: nounwind uwtable
define dso_local zeroext i1 @type_homogenous_aggregate_small_enough(ptr noundef %0, i32 noundef %1) local_unnamed_addr #0 {
  %3 = load i32, ptr getelementptr inbounds (%struct.PlatformTarget, ptr @platform_target, i64 0, i32 10), align 8
  switch i32 %3, label %20 [
    i32 8, label %4
    i32 1, label %18
    i32 2, label %18
    i32 3, label %18
    i32 4, label %18
    i32 6, label %18
    i32 0, label %21
    i32 5, label %21
    i32 7, label %21
    i32 9, label %21
  ]

4:                                                ; preds = %2
  %5 = load i32, ptr %0, align 8
  switch i32 %5, label %.thread [
    i32 17, label %6
    i32 37, label %11
  ]

6:                                                ; preds = %4
  %7 = load i8, ptr getelementptr inbounds (%struct.PlatformTarget, ptr @platform_target, i64 0, i32 20), align 1
  %8 = trunc i8 %7 to i1
  br i1 %8, label %9, label %.thread

9:                                                ; preds = %6
  %10 = icmp ult i32 %1, 9
  br label %21

11:                                               ; preds = %4
  %12 = icmp ult i32 %1, 9
  br label %21

.thread:                                          ; preds = %4, %6
  %13 = tail call i32 @type_size(ptr noundef nonnull %0) #4
  %14 = add i32 %13, 7
  %15 = lshr i32 %14, 3
  %16 = mul i32 %15, %1
  %17 = icmp ult i32 %16, 9
  br label %21

18:                                               ; preds = %2, %2, %2, %2, %2
  %19 = icmp ult i32 %1, 5
  br label %21

20:                                               ; preds = %2
  tail call void (ptr, ...) @error_exit(ptr noundef nonnull @.str.4, ptr noundef nonnull @.str.5, ptr noundef nonnull @__func__.type_homogenous_aggregate_small_enough, ptr noundef nonnull @.str.6, i32 noundef 156) #5
  unreachable

21:                                               ; preds = %2, %2, %2, %2, %18, %.thread, %11, %9
  %.0 = phi i1 [ %19, %18 ], [ %10, %9 ], [ %12, %11 ], [ %17, %.thread ], [ false, %2 ], [ false, %2 ], [ false, %2 ], [ false, %2 ]
  ret i1 %.0
}